target datalayout = "e-m:e-p270:32:32-p271:32:32-p272:64:64-i64:64-i128:128-f80:128-n8:16:32:64-S128"
target triple = "x86_64-pc-linux-gnu"

%"class.xgboost::Value" = type { ptr, %"class.xgboost::IntrusivePtrCell", i64 }
%"class.xgboost::IntrusivePtrCell" = type { %"struct.std::atomic" }
%"struct.std::atomic" = type { %"struct.std::__atomic_base" }
%"struct.std::__atomic_base" = type { i32 }
%"class.xgboost::JsonObject" = type { %"class.xgboost::Value", %"class.std::map" }
%"class.std::map" = type { %"class.std::_Rb_tree" }
%"class.std::_Rb_tree" = type { %"struct.std::_Rb_tree<std::__cxx11::basic_string<char>, std::pair<const std::__cxx11::basic_string<char>, xgboost::Json>, std::_Select1st<std::pair<const std::__cxx11::basic_string<char>, xgboost::Json>>, std::less<void>>::_Rb_tree_impl" }
%"struct.std::_Rb_tree<std::__cxx11::basic_string<char>, std::pair<const std::__cxx11::basic_string<char>, xgboost::Json>, std::_Select1st<std::pair<const std::__cxx11::basic_string<char>, xgboost::Json>>, std::less<void>>::_Rb_tree_impl" = type { [8 x i8], %"struct.std::_Rb_tree_header" }
%"struct.std::_Rb_tree_header" = type { %"struct.std::_Rb_tree_node_base", i64 }
%"struct.std::_Rb_tree_node_base" = type { i32, ptr, ptr, ptr }

; Function Attrs: mustprogress nounwind uwtable
define linkonce_odr void @_ZNSt15_Rb_tree_header8_M_resetEv(ptr noundef nonnull align 8 dereferenceable(40) %0) #5 comdat align 2 {
  %2 = alloca ptr, align 8
  store ptr %0, ptr %2, align 8, !tbaa !460
  %3 = load ptr, ptr %2, align 8
  %4 = getelementptr inbounds nuw %"struct.std::_Rb_tree_header", ptr %3, i32 0, i32 0
  %5 = getelementptr inbounds nuw %"struct.std::_Rb_tree_node_base", ptr %4, i32 0, i32 1
  store ptr null, ptr %5, align 8, !tbaa !468
  %6 = getelementptr inbounds nuw %"struct.std::_Rb_tree_header", ptr %3, i32 0, i32 0
  %7 = getelementptr inbounds nuw %"struct.std::_Rb_tree_header", ptr %3, i32 0, i32 0
  %8 = getelementptr inbounds nuw %"struct.std::_Rb_tree_node_base", ptr %7, i32 0, i32 2
  store ptr %6, ptr %8, align 8, !tbaa !469
  %9 = getelementptr inbounds nuw %"struct.std::_Rb_tree_header", ptr %3, i32 0, i32 0
  %10 = getelementptr inbounds nuw %"struct.std::_Rb_tree_header", ptr %3, i32 0, i32 0
  %11 = getelementptr inbounds nuw %"struct.std::_Rb_tree_node_base", ptr %10, i32 0, i32 3
  store ptr %9, ptr %11, align 8, !tbaa !470
  %12 = getelementptr inbounds nuw %"struct.std::_Rb_tree_header", ptr %3, i32 0, i32 1
  store i64 0, ptr %12, align 8, !tbaa !471
  ret void
}

; Function Attrs: mustprogress nounwind uwtable
define linkonce_odr void @_ZNSt15_Rb_tree_header12_M_move_dataERS_(ptr noundef nonnull align 8 dereferenceable(40) %0, ptr noundef nonnull align 8 dereferenceable(40) %1) #5 comdat align 2 {
  %3 = alloca ptr, align 8
  %4 = alloca ptr, align 8
  store ptr %0, ptr %3, align 8, !tbaa !460
  store ptr %1, ptr %4, align 8, !tbaa !460
  %5 = load ptr, ptr %3, align 8
  %6 = load ptr, ptr %4, align 8, !tbaa !460
  %7 = getelementptr inbounds nuw %"struct.std::_Rb_tree_header", ptr %6, i32 0, i32 0
  %8 = getelementptr inbounds nuw %"struct.std::_Rb_tree_node_base", ptr %7, i32 0, i32 0
  %9 = load i32, ptr %8, align 8, !tbaa !462
  %10 = getelementptr inbounds nuw %"struct.std::_Rb_tree_header", ptr %5, i32 0, i32 0
  %11 = getelementptr inbounds nuw %"struct.std::_Rb_tree_node_base", ptr %10, i32 0, i32 0
  store i32 %9, ptr %11, align 8, !tbaa !462
  %12 = load ptr, ptr %4, align 8, !tbaa !460
  %13 = getelementptr inbounds nuw %"struct.std::_Rb_tree_header", ptr %12, i32 0, i32 0
  %14 = getelementptr inbounds nuw %"struct.std::_Rb_tree_node_base", ptr %13, i32 0, i32 1
  %15 = load ptr, ptr %14, align 8, !tbaa !468
  %16 = getelementptr inbounds nuw %"struct.std::_Rb_tree_header", ptr %5, i32 0, i32 0
  %17 = getelementptr inbounds nuw %"struct.std::_Rb_tree_node_base", ptr %16, i32 0, i32 1
  store ptr %15, ptr %17, align 8, !tbaa !468
  %18 = load ptr, ptr %4, align 8, !tbaa !460
  %19 = getelementptr inbounds nuw %"struct.std::_Rb_tree_header", ptr %18, i32 0, i32 0
  %20 = getelementptr inbounds nuw %"struct.std::_Rb_tree_node_base", ptr %19, i32 0, i32 2
  %21 = load ptr, ptr %20, align 8, !tbaa !469
  %22 = getelementptr inbounds nuw %"struct.std::_Rb_tree_header", ptr %5, i32 0, i32 0
  %23 = getelementptr inbounds nuw %"struct.std::_Rb_tree_node_base", ptr %22, i32 0, i32 2
  store ptr %21, ptr %23, align 8, !tbaa !469
  %24 = load ptr, ptr %4, align 8, !tbaa !460
  %25 = getelementptr inbounds nuw %"struct.std::_Rb_tree_header", ptr %24, i32 0, i32 0
  %26 = getelementptr inbounds nuw %"struct.std::_Rb_tree_node_base", ptr %25, i32 0, i32 3
  %27 = load ptr, ptr %26, align 8, !tbaa !470
  %28 = getelementptr inbounds nuw %"struct.std::_Rb_tree_header", ptr %5, i32 0, i32 0
  %29 = getelementptr inbounds nuw %"struct.std::_Rb_tree_node_base", ptr %28, i32 0, i32 3
  store ptr %27, ptr %29, align 8, !tbaa !470
  %30 = getelementptr inbounds nuw %"struct.std::_Rb_tree_header", ptr %5, i32 0, i32 0
  %31 = getelementptr inbounds nuw %"struct.std::_Rb_tree_header", ptr %5, i32 0, i32 0
  %32 = getelementptr inbounds nuw %"struct.std::_Rb_tree_node_base", ptr %31, i32 0, i32 1
  %33 = load ptr, ptr %32, align 8, !tbaa !468
  %34 = getelementptr inbounds nuw %"struct.std::_Rb_tree_node_base", ptr %33, i32 0, i32 1
  store ptr %30, ptr %34, align 8, !tbaa !472
  %35 = load ptr, ptr %4, align 8, !tbaa !460
  %36 = getelementptr inbounds nuw %"struct.std::_Rb_tree_header", ptr %35, i32 0, i32 1
  %37 = load i64, ptr %36, align 8, !tbaa !471
  %38 = getelementptr inbounds nuw %"struct.std::_Rb_tree_header", ptr %5, i32 0, i32 1
  store i64 %37, ptr %38, align 8, !tbaa !471
  %39 = load ptr, ptr %4, align 8, !tbaa !460
  call void @_ZNSt15_Rb_tree_header8_M_resetEv(ptr noundef nonnull align 8 dereferenceable(40) %39)
  ret void
}

; Function Attrs: mustprogress nounwind uwtable
define linkonce_odr void @_ZNSt15__new_allocatorISt13_Rb_tree_nodeISt4pairIKNSt7__cxx1112basic_stringIcSt11char_traitsIcESaIcEEEN7xgboost4JsonEEEEC2ERKSD_(ptr noundef nonnull align 1 dereferenceable(1) %0, ptr noundef nonnull align 1 dereferenceable(1) %1) unnamed_addr #5 comdat align 2 {
  %3 = alloca ptr, align 8
  %4 = alloca ptr, align 8
  store ptr %0, ptr %3, align 8, !tbaa !466
  store ptr %1, ptr %4, align 8, !tbaa !466
  ret void
}

; Function Attrs: mustprogress nounwind uwtable
define linkonce_odr void @_ZNSt15_Rb_tree_headerC2EOS_(ptr noundef nonnull align 8 dereferenceable(40) %0, ptr noundef nonnull align 8 dereferenceable(40) %1) unnamed_addr #5 comdat align 2 personality ptr @__gxx_personality_v0 {
  %3 = alloca ptr, align 8
  %4 = alloca ptr, align 8
  store ptr %0, ptr %3, align 8, !tbaa !460
  store ptr %1, ptr %4, align 8, !tbaa !460
  %5 = load ptr, ptr %3, align 8
  %6 = load ptr, ptr %4, align 8, !tbaa !460
  %7 = getelementptr inbounds nuw %"struct.std::_Rb_tree_header", ptr %6, i32 0, i32 0
  %8 = getelementptr inbounds nuw %"struct.std::_Rb_tree_node_base", ptr %7, i32 0, i32 1
  %9 = load ptr, ptr %8, align 8, !tbaa !468
  %10 = icmp ne ptr %9, null
  br i1 %10, label %11, label %14

11:                                               ; preds = %2
  %12 = load ptr, ptr %4, align 8, !tbaa !460
  invoke void @_ZNSt15_Rb_tree_header12_M_move_dataERS_(ptr noundef nonnull align 8 dereferenceable(40) %5, ptr noundef nonnull align 8 dereferenceable(40) %12)
          to label %13 unwind label %18

13:                                               ; preds = %11
  br label %17

14:                                               ; preds = %2
  %15 = getelementptr inbounds nuw %"struct.std::_Rb_tree_header", ptr %5, i32 0, i32 0
  %16 = getelementptr inbounds nuw %"struct.std::_Rb_tree_node_base", ptr %15, i32 0, i32 0
  store i32 0, ptr %16, align 8, !tbaa !462
  call void @_ZNSt15_Rb_tree_header8_M_resetEv(ptr noundef nonnull align 8 dereferenceable(40) %5)
  br label %17

17:                                               ; preds = %14, %13
  ret void

18:                                               ; preds = %11
  %19 = landingpad { ptr, i32 }
          catch ptr null
  %20 = extractvalue { ptr, i32 } %19, 0
  call void @__clang_call_terminate(ptr %20) #25
  unreachable
}

; Function Attrs: mustprogress nounwind uwtable
define linkonce_odr void @_ZNSt20_Rb_tree_key_compareISt4lessIvEEC2EOS2_(ptr noundef nonnull align 1 dereferenceable(1) %0, ptr noundef nonnull align 1 dereferenceable(1) %1) unnamed_addr #5 comdat align 2 {
  %3 = alloca ptr, align 8
  %4 = alloca ptr, align 8
  store ptr %0, ptr %3, align 8, !tbaa !458
  store ptr %1, ptr %4, align 8, !tbaa !458
  ret void
}

; Function Attrs: mustprogress nounwind uwtable
define linkonce_odr void @_ZNSaISt13_Rb_tree_nodeISt4pairIKNSt7__cxx1112basic_stringIcSt11char_traitsIcESaIcEEEN7xgboost4JsonEEEEC2ERKSC_(ptr noundef nonnull align 1 dereferenceable(1) %0, ptr noundef nonnull align 1 dereferenceable(1) %1) unnamed_addr #5 comdat align 2 {
  %3 = alloca ptr, align 8
  %4 = alloca ptr, align 8
  store ptr %0, ptr %3, align 8, !tbaa !456
  store ptr %1, ptr %4, align 8, !tbaa !456
  %5 = load ptr, ptr %3, align 8
  %6 = load ptr, ptr %4, align 8, !tbaa !456
  call void @_ZNSt15__new_allocatorISt13_Rb_tree_nodeISt4pairIKNSt7__cxx1112basic_stringIcSt11char_traitsIcESaIcEEEN7xgboost4JsonEEEEC2ERKSD_(ptr noundef nonnull align 1 dereferenceable(1) %5, ptr noundef nonnull align 1 dereferenceable(1) %6) #3
  ret void
}

; Function Attrs: mustprogress nounwind uwtable
define linkonce_odr void @_ZNSt13__atomic_baseIiEC2Ei(ptr noundef nonnull align 4 dereferenceable(4) %0, i32 noundef %1) unnamed_addr #5 comdat align 2 {
  %3 = alloca ptr, align 8
  %4 = alloca i32, align 4
  store ptr %0, ptr %3, align 8, !tbaa !256
  store i32 %1, ptr %4, align 4, !tbaa !90
  %5 = load ptr, ptr %3, align 8
  %6 = getelementptr inbounds nuw %"struct.std::__atomic_base", ptr %5, i32 0, i32 0
  %7 = load i32, ptr %4, align 4, !tbaa !90
  store i32 %7, ptr %6, align 4, !tbaa !258
  ret void
}

; Function Attrs: mustprogress nounwind uwtable
define linkonce_odr void @_ZNSt8_Rb_treeINSt7__cxx1112basic_stringIcSt11char_traitsIcESaIcEEESt4pairIKS5_N7xgboost4JsonEESt10_Select1stISA_ESt4lessIvESaISA_EE13_Rb_tree_implISE_Lb1EEC2EOSI_(ptr noundef nonnull align 8 dereferenceable(48) %0, ptr noundef nonnull align 8 dereferenceable(48) %1) unnamed_addr #5 comdat align 2 {
  %3 = alloca ptr, align 8
  %4 = alloca ptr, align 8
  store ptr %0, ptr %3, align 8, !tbaa !454
  store ptr %1, ptr %4, align 8, !tbaa !454
  %5 = load ptr, ptr %3, align 8
  %6 = load ptr, ptr %4, align 8, !tbaa !454
  call void @_ZNSaISt13_Rb_tree_nodeISt4pairIKNSt7__cxx1112basic_stringIcSt11char_traitsIcESaIcEEEN7xgboost4JsonEEEEC2ERKSC_(ptr noundef nonnull align 1 dereferenceable(1) %5, ptr noundef nonnull align 1 dereferenceable(1) %6) #3
  %7 = load ptr, ptr %4, align 8, !tbaa !454
  call void @_ZNSt20_Rb_tree_key_compareISt4lessIvEEC2EOS2_(ptr noundef nonnull align 1 dereferenceable(1) %5, ptr noundef nonnull align 1 dereferenceable(1) %7) #3
  %8 = getelementptr inbounds i8, ptr %5, i64 8
  %9 = load ptr, ptr %4, align 8, !tbaa !454
  %10 = getelementptr inbounds i8, ptr %9, i64 8
  call void @_ZNSt15_Rb_tree_headerC2EOS_(ptr noundef nonnull align 8 dereferenceable(40) %8, ptr noundef nonnull align 8 dereferenceable(40) %10) #3
  ret void
}

; Function Attrs: mustprogress nounwind uwtable
define linkonce_odr void @_ZNSt6atomicIiEC2Ei(ptr noundef nonnull align 4 dereferenceable(4) %0, i32 noundef %1) unnamed_addr #5 comdat align 2 {
  %3 = alloca ptr, align 8
  %4 = alloca i32, align 4
  store ptr %0, ptr %3, align 8, !tbaa !254
  store i32 %1, ptr %4, align 4, !tbaa !90
  %5 = load ptr, ptr %3, align 8
  %6 = load i32, ptr %4, align 4, !tbaa !90
  call void @_ZNSt13__atomic_baseIiEC2Ei(ptr noundef nonnull align 4 dereferenceable(4) %5, i32 noundef %6) #3
  ret void
}

; Function Attrs: mustprogress nounwind uwtable
define linkonce_odr void @_ZNSt8_Rb_treeINSt7__cxx1112basic_stringIcSt11char_traitsIcESaIcEEESt4pairIKS5_N7xgboost4JsonEESt10_Select1stISA_ESt4lessIvESaISA_EEC2EOSG_(ptr noundef nonnull align 8 dereferenceable(48) %0, ptr noundef nonnull align 8 dereferenceable(48) %1) unnamed_addr #5 comdat align 2 {
  %3 = alloca ptr, align 8
  %4 = alloca ptr, align 8
  store ptr %0, ptr %3, align 8, !tbaa !452
  store ptr %1, ptr %4, align 8, !tbaa !452
  %5 = load ptr, ptr %3, align 8
  %6 = getelementptr inbounds nuw %"class.std::_Rb_tree", ptr %5, i32 0, i32 0
  %7 = load ptr, ptr %4, align 8, !tbaa !452
  %8 = getelementptr inbounds nuw %"class.std::_Rb_tree", ptr %7, i32 0, i32 0
  call void @_ZNSt8_Rb_treeINSt7__cxx1112basic_stringIcSt11char_traitsIcESaIcEEESt4pairIKS5_N7xgboost4JsonEESt10_Select1stISA_ESt4lessIvESaISA_EE13_Rb_tree_implISE_Lb1EEC2EOSI_(ptr noundef nonnull align 8 dereferenceable(48) %6, ptr noundef nonnull align 8 dereferenceable(48) %8) #3
  ret void
}

; Function Attrs: mustprogress nounwind uwtable
define linkonce_odr void @_ZN7xgboost16IntrusivePtrCellC2Ev(ptr noundef nonnull align 4 dereferenceable(4) %0) unnamed_addr #5 comdat align 2 {
  %2 = alloca ptr, align 8
  store ptr %0, ptr %2, align 8, !tbaa !252
  %3 = load ptr, ptr %2, align 8
  %4 = getelementptr inbounds nuw %"class.xgboost::IntrusivePtrCell", ptr %3, i32 0, i32 0
  call void @_ZNSt6atomicIiEC2Ei(ptr noundef nonnull align 4 dereferenceable(4) %4, i32 noundef 0) #3
  ret void
}

; Function Attrs: noinline noreturn nounwind uwtable
define linkonce_odr hidden void @__clang_call_terminate(ptr noundef %0) #6 comdat {
  %2 = call ptr @__cxa_begin_catch(ptr %0) #3
  call void @_ZSt9terminatev() #25
  unreachable
}

; Function Attrs: mustprogress nounwind uwtable
define linkonce_odr void @_ZNSt3mapINSt7__cxx1112basic_stringIcSt11char_traitsIcESaIcEEEN7xgboost4JsonESt4lessIvESaISt4pairIKS5_S7_EEEC2EOSE_(ptr noundef nonnull align 8 dereferenceable(48) %0, ptr noundef nonnull align 8 dereferenceable(48) %1) unnamed_addr #5 comdat align 2 {
  %3 = alloca ptr, align 8
  %4 = alloca ptr, align 8
  store ptr %0, ptr %3, align 8, !tbaa !125
  store ptr %1, ptr %4, align 8, !tbaa !125
  %5 = load ptr, ptr %3, align 8
  %6 = getelementptr inbounds nuw %"class.std::map", ptr %5, i32 0, i32 0
  %7 = load ptr, ptr %4, align 8, !tbaa !125
  %8 = getelementptr inbounds nuw %"class.std::map", ptr %7, i32 0, i32 0
  call void @_ZNSt8_Rb_treeINSt7__cxx1112basic_stringIcSt11char_traitsIcESaIcEEESt4pairIKS5_N7xgboost4JsonEESt10_Select1stISA_ESt4lessIvESaISA_EEC2EOSG_(ptr noundef nonnull align 8 dereferenceable(48) %6, ptr noundef nonnull align 8 dereferenceable(48) %8) #3
  ret void
}

; Function Attrs: mustprogress nounwind uwtable
define linkonce_odr void @_ZN7xgboost5ValueC2ENS0_9ValueKindE(ptr noundef nonnull align 8 dereferenceable(24) %0, i64 noundef %1) unnamed_addr #5 comdat align 2 {
  %3 = alloca ptr, align 8
  %4 = alloca i64, align 8
  store ptr %0, ptr %3, align 8, !tbaa !10
  store i64 %1, ptr %4, align 8, !tbaa !12
  %5 = load ptr, ptr %3, align 8
  store ptr getelementptr inbounds inrange(-16, 56) ({ [9 x ptr] }, ptr @_ZTVN7xgboost5ValueE, i32 0, i32 0, i32 2), ptr %5, align 8, !tbaa !8
  %6 = getelementptr inbounds nuw %"class.xgboost::Value", ptr %5, i32 0, i32 1
  call void @_ZN7xgboost16IntrusivePtrCellC2Ev(ptr noundef nonnull align 4 dereferenceable(4) %6) #3
  %7 = getelementptr inbounds nuw %"class.xgboost::Value", ptr %5, i32 0, i32 2
  %8 = load i64, ptr %4, align 8, !tbaa !12
  store i64 %8, ptr %7, align 8, !tbaa !14
  ret void
}

; Function Attrs: mustprogress nounwind uwtable
define void @_ZN7xgboost10JsonObjectC2EOSt3mapINSt7__cxx1112basic_stringIcSt11char_traitsIcESaIcEEENS_4JsonESt4lessIvESaISt4pairIKS7_S8_EEE(ptr noundef nonnull align 8 dereferenceable(72) %0, ptr noundef nonnull align 8 dereferenceable(48) %1) unnamed_addr #5 align 2 personality ptr @__gxx_personality_v0 {
  %3 = alloca ptr, align 8
  %4 = alloca ptr, align 8
  store ptr %0, ptr %3, align 8, !tbaa !123
  store ptr %1, ptr %4, align 8, !tbaa !125
  %5 = load ptr, ptr %3, align 8
  invoke void @_ZN7xgboost5ValueC2ENS0_9ValueKindE(ptr noundef nonnull align 8 dereferenceable(24) %5, i64 noundef 3)
          to label %6 unwind label %9

6:                                                ; preds = %2
  store ptr getelementptr inbounds inrange(-16, 56) ({ [9 x ptr] }, ptr @_ZTVN7xgboost10JsonObjectE, i32 0, i32 0, i32 2), ptr %5, align 8, !tbaa !8
  %7 = getelementptr inbounds nuw %"class.xgboost::JsonObject", ptr %5, i32 0, i32 1
  %8 = load ptr, ptr %4, align 8, !tbaa !125
  call void @_ZNSt3mapINSt7__cxx1112basic_stringIcSt11char_traitsIcESaIcEEEN7xgboost4JsonESt4lessIvESaISt4pairIKS5_S7_EEEC2EOSE_(ptr noundef nonnull align 8 dereferenceable(48) %7, ptr noundef nonnull align 8 dereferenceable(48) %8) #3
  ret void

9:                                                ; preds = %2
  %10 = landingpad { ptr, i32 }
          catch ptr null
  %11 = extractvalue { ptr, i32 } %10, 0
  call void @__clang_call_terminate(ptr %11) #25
  unreachable
}