; Function Attrs: mustprogress nofree norecurse nosync nounwind willreturn memory(write, argmem: readwrite, inaccessiblemem: none) uwtable
define void @_ZN7xgboost10JsonObjectC2EOSt3mapINSt7__cxx1112basic_stringIcSt11char_traitsIcESaIcEEENS_4JsonESt4lessIvESaISt4pairIKS7_S8_EEE(ptr noundef nonnull align 8 dereferenceable(72) initializes((0, 12), (16, 24), (40, 48)) %0, ptr noundef nonnull align 8 dereferenceable(48) %1) unnamed_addr #12 align 2 personality ptr @__gxx_personality_v0 {
  %3 = getelementptr inbounds nuw i8, ptr %0, i64 8
  store i32 0, ptr %3, align 8, !tbaa !3
  %4 = getelementptr inbounds nuw i8, ptr %0, i64 16
  store i64 3, ptr %4, align 8, !tbaa !8
  store ptr getelementptr inbounds nuw inrange(-16, 56) (i8, ptr @_ZTVN7xgboost10JsonObjectE, i64 16), ptr %0, align 8, !tbaa !13
  %5 = getelementptr inbounds nuw i8, ptr %0, i64 32
  %6 = getelementptr inbounds nuw i8, ptr %1, i64 16
  %7 = load ptr, ptr %6, align 8, !tbaa !238
  %.not.i.i.i.i = icmp eq ptr %7, null
  br i1 %.not.i.i.i.i, label %22, label %8

8:                                                ; preds = %2
  %9 = getelementptr inbounds nuw i8, ptr %1, i64 8
  %10 = load i32, ptr %9, align 8, !tbaa !237
  %11 = getelementptr inbounds nuw i8, ptr %0, i64 40
  store ptr %7, ptr %11, align 8, !tbaa !238
  %12 = getelementptr inbounds nuw i8, ptr %1, i64 24
  %13 = load ptr, ptr %12, align 8, !tbaa !219
  %14 = getelementptr inbounds nuw i8, ptr %0, i64 48
  store ptr %13, ptr %14, align 8, !tbaa !219
  %15 = getelementptr inbounds nuw i8, ptr %1, i64 32
  %16 = load ptr, ptr %15, align 8, !tbaa !239
  %17 = getelementptr inbounds nuw i8, ptr %0, i64 56
  store ptr %16, ptr %17, align 8, !tbaa !239
  %18 = getelementptr inbounds nuw i8, ptr %7, i64 8
  store ptr %5, ptr %18, align 8, !tbaa !241
  %19 = getelementptr inbounds nuw i8, ptr %1, i64 40
  %20 = load i64, ptr %19, align 8, !tbaa !224
  %21 = getelementptr inbounds nuw i8, ptr %0, i64 64
  store i64 %20, ptr %21, align 8, !tbaa !224
  store ptr null, ptr %6, align 8, !tbaa !238
  store ptr %9, ptr %12, align 8, !tbaa !219
  store ptr %9, ptr %15, align 8, !tbaa !239
  store i64 0, ptr %19, align 8, !tbaa !224
  br label %_ZNSt3mapINSt7__cxx1112basic_stringIcSt11char_traitsIcESaIcEEEN7xgboost4JsonESt4lessIvESaISt4pairIKS5_S7_EEEC2EOSE_.exit

22:                                               ; preds = %2
  %23 = getelementptr inbounds nuw i8, ptr %0, i64 40
  store ptr null, ptr %23, align 8, !tbaa !238
  %24 = getelementptr inbounds nuw i8, ptr %0, i64 48
  store ptr %5, ptr %24, align 8, !tbaa !219
  %25 = getelementptr inbounds nuw i8, ptr %0, i64 56
  store ptr %5, ptr %25, align 8, !tbaa !239
  %26 = getelementptr inbounds nuw i8, ptr %0, i64 64
  store i64 0, ptr %26, align 8, !tbaa !224
  br label %_ZNSt3mapINSt7__cxx1112basic_stringIcSt11char_traitsIcESaIcEEEN7xgboost4JsonESt4lessIvESaISt4pairIKS5_S7_EEEC2EOSE_.exit

_ZNSt3mapINSt7__cxx1112basic_stringIcSt11char_traitsIcESaIcEEEN7xgboost4JsonESt4lessIvESaISt4pairIKS5_S7_EEEC2EOSE_.exit: ; preds = %8, %22
  %.sink.i.i.i.i = phi i32 [ 0, %22 ], [ %10, %8 ]
  store i32 %.sink.i.i.i.i, ptr %5, align 8, !tbaa !237
  ret void
}